target datalayout = "e-m:e-p270:32:32-p271:32:32-p272:64:64-i64:64-i128:128-f80:128-n8:16:32:64-S128"
target triple = "x86_64-pc-linux-gnu"

@bio_err = external global ptr, align 8
@select_name = internal global ptr null, align 8
@bio_out = external global ptr, align 8
@.str.99 = private unnamed_addr constant [26 x i8] c"ERROR: Memory allocation\0A\00", align 1
@.str.102 = private unnamed_addr constant [3 x i8] c"  \00", align 1
@.str.103 = private unnamed_addr constant [7 x i8] c" @ %s\0A\00", align 1
@.str.122 = private unnamed_addr constant [25 x i8] c"Provided STORE LOADERs:\0A\00", align 1

; Function Attrs: inlinehint nounwind uwtable
define internal void @sk_OSSL_STORE_LOADER_pop_free(ptr noundef %0, ptr noundef %1) #5 {
  %3 = alloca ptr, align 8
  %4 = alloca ptr, align 8
  store ptr %0, ptr %3, align 8, !tbaa !92
  store ptr %1, ptr %4, align 8, !tbaa !123
  %5 = load ptr, ptr %3, align 8, !tbaa !92
  %6 = load ptr, ptr %4, align 8, !tbaa !123
  call void @OPENSSL_sk_pop_free(ptr noundef %5, ptr noundef %6)
  ret void
}

; Function Attrs: inlinehint nounwind uwtable
define internal ptr @ossl_check_OPENSSL_CSTRING_sk_type(ptr noundef %0) #5 {
  %2 = alloca ptr, align 8
  store ptr %0, ptr %2, align 8, !tbaa !39
  %3 = load ptr, ptr %2, align 8, !tbaa !39
  ret ptr %3
}

; Function Attrs: inlinehint nounwind uwtable
define internal ptr @ossl_check_OPENSSL_CSTRING_compfunc_type(ptr noundef %0) #5 {
  %2 = alloca ptr, align 8
  store ptr %0, ptr %2, align 8, !tbaa !123
  %3 = load ptr, ptr %2, align 8, !tbaa !123
  ret ptr %3
}

; Function Attrs: inlinehint nounwind uwtable
define internal ptr @sk_OSSL_STORE_LOADER_value(ptr noundef %0, i32 noundef %1) #5 {
  %3 = alloca ptr, align 8
  %4 = alloca i32, align 4
  store ptr %0, ptr %3, align 8, !tbaa !92
  store i32 %1, ptr %4, align 4, !tbaa !4
  %5 = load ptr, ptr %3, align 8, !tbaa !92
  %6 = load i32, ptr %4, align 4, !tbaa !4
  %7 = call ptr @OPENSSL_sk_value(ptr noundef %5, i32 noundef %6)
  ret ptr %7
}

; Function Attrs: inlinehint nounwind uwtable
define internal i32 @sk_OSSL_STORE_LOADER_num(ptr noundef %0) #5 {
  %2 = alloca ptr, align 8
  store ptr %0, ptr %2, align 8, !tbaa !92
  %3 = load ptr, ptr %2, align 8, !tbaa !92
  %4 = call i32 @OPENSSL_sk_num(ptr noundef %3)
  ret i32 %4
}

; Function Attrs: inlinehint nounwind uwtable
define internal void @sk_OSSL_STORE_LOADER_sort(ptr noundef %0) #5 {
  %2 = alloca ptr, align 8
  store ptr %0, ptr %2, align 8, !tbaa !92
  %3 = load ptr, ptr %2, align 8, !tbaa !92
  call void @OPENSSL_sk_sort(ptr noundef %3)
  ret void
}

; Function Attrs: inlinehint nounwind uwtable
define internal ptr @sk_OSSL_STORE_LOADER_new(ptr noundef %0) #5 {
  %2 = alloca ptr, align 8
  store ptr %0, ptr %2, align 8, !tbaa !123
  %3 = load ptr, ptr %2, align 8, !tbaa !123
  %4 = call ptr @OPENSSL_sk_new(ptr noundef %3)
  ret ptr %4
}

; Function Attrs: nounwind uwtable
define internal void @list_store_loaders() #0 {
  %1 = alloca ptr, align 8
  %2 = alloca i32, align 4
  %3 = alloca i32, align 4
  %4 = alloca ptr, align 8
  %5 = alloca ptr, align 8
  call void @llvm.lifetime.start.p0(i64 8, ptr %1) #7
  %6 = call ptr @sk_OSSL_STORE_LOADER_new(ptr noundef @store_cmp)
  store ptr %6, ptr %1, align 8, !tbaa !92
  call void @llvm.lifetime.start.p0(i64 4, ptr %2) #7
  %7 = load ptr, ptr %1, align 8, !tbaa !92
  %8 = icmp eq ptr %7, null
  br i1 %8, label %9, label %12

9:                                                ; preds = %0
  %10 = load ptr, ptr @bio_err, align 8, !tbaa !13
  %11 = call i32 (ptr, ptr, ...) @BIO_printf(ptr noundef %10, ptr noundef @.str.99)
  store i32 1, ptr %3, align 4
  br label %66

12:                                               ; preds = %0
  %13 = load ptr, ptr @bio_out, align 8, !tbaa !13
  %14 = call i32 (ptr, ptr, ...) @BIO_printf(ptr noundef %13, ptr noundef @.str.122)
  %15 = call ptr @app_get0_libctx()
  %16 = load ptr, ptr %1, align 8, !tbaa !92
  call void @OSSL_STORE_LOADER_do_all_provided(ptr noundef %15, ptr noundef @collect_store_loaders, ptr noundef %16)
  %17 = load ptr, ptr %1, align 8, !tbaa !92
  call void @sk_OSSL_STORE_LOADER_sort(ptr noundef %17)
  store i32 0, ptr %2, align 4, !tbaa !4
  br label %18

18:                                               ; preds = %61, %12
  %19 = load i32, ptr %2, align 4, !tbaa !4
  %20 = load ptr, ptr %1, align 8, !tbaa !92
  %21 = call i32 @sk_OSSL_STORE_LOADER_num(ptr noundef %20)
  %22 = icmp slt i32 %19, %21
  br i1 %22, label %23, label %64

23:                                               ; preds = %18
  call void @llvm.lifetime.start.p0(i64 8, ptr %4) #7
  %24 = load ptr, ptr %1, align 8, !tbaa !92
  %25 = load i32, ptr %2, align 4, !tbaa !4
  %26 = call ptr @sk_OSSL_STORE_LOADER_value(ptr noundef %24, i32 noundef %25)
  store ptr %26, ptr %4, align 8, !tbaa !94
  call void @llvm.lifetime.start.p0(i64 8, ptr %5) #7
  store ptr null, ptr %5, align 8, !tbaa !39
  %27 = load ptr, ptr @select_name, align 8, !tbaa !11
  %28 = icmp ne ptr %27, null
  br i1 %28, label %29, label %35

29:                                               ; preds = %23
  %30 = load ptr, ptr %4, align 8, !tbaa !94
  %31 = load ptr, ptr @select_name, align 8, !tbaa !11
  %32 = call i32 @OSSL_STORE_LOADER_is_a(ptr noundef %30, ptr noundef %31)
  %33 = icmp ne i32 %32, 0
  br i1 %33, label %35, label %34

34:                                               ; preds = %29
  store i32 4, ptr %3, align 4
  br label %58

35:                                               ; preds = %29, %23
  %36 = call ptr @ossl_check_OPENSSL_CSTRING_compfunc_type(ptr noundef @name_cmp)
  %37 = call ptr @OPENSSL_sk_new(ptr noundef %36)
  store ptr %37, ptr %5, align 8, !tbaa !39
  %38 = load ptr, ptr %5, align 8, !tbaa !39
  %39 = icmp ne ptr %38, null
  br i1 %39, label %40, label %55

40:                                               ; preds = %35
  %41 = load ptr, ptr %4, align 8, !tbaa !94
  %42 = load ptr, ptr %5, align 8, !tbaa !39
  %43 = call i32 @OSSL_STORE_LOADER_names_do_all(ptr noundef %41, ptr noundef @collect_names, ptr noundef %42)
  %44 = icmp ne i32 %43, 0
  br i1 %44, label %45, label %55

45:                                               ; preds = %40
  %46 = load ptr, ptr @bio_out, align 8, !tbaa !13
  %47 = call i32 (ptr, ptr, ...) @BIO_printf(ptr noundef %46, ptr noundef @.str.102)
  %48 = load ptr, ptr @bio_out, align 8, !tbaa !13
  %49 = load ptr, ptr %5, align 8, !tbaa !39
  call void @print_names(ptr noundef %48, ptr noundef %49)
  %50 = load ptr, ptr @bio_out, align 8, !tbaa !13
  %51 = load ptr, ptr %4, align 8, !tbaa !94
  %52 = call ptr @OSSL_STORE_LOADER_get0_provider(ptr noundef %51)
  %53 = call ptr @OSSL_PROVIDER_get0_name(ptr noundef %52)
  %54 = call i32 (ptr, ptr, ...) @BIO_printf(ptr noundef %50, ptr noundef @.str.103, ptr noundef %53)
  br label %55

55:                                               ; preds = %45, %40, %35
  %56 = load ptr, ptr %5, align 8, !tbaa !39
  %57 = call ptr @ossl_check_OPENSSL_CSTRING_sk_type(ptr noundef %56)
  call void @OPENSSL_sk_free(ptr noundef %57)
  store i32 0, ptr %3, align 4
  br label %58

58:                                               ; preds = %55, %34
  call void @llvm.lifetime.end.p0(i64 8, ptr %5) #7
  call void @llvm.lifetime.end.p0(i64 8, ptr %4) #7
  %59 = load i32, ptr %3, align 4
  switch i32 %59, label %69 [
    i32 0, label %60
    i32 4, label %61
  ]

60:                                               ; preds = %58
  br label %61

61:                                               ; preds = %60, %58
  %62 = load i32, ptr %2, align 4, !tbaa !4
  %63 = add nsw i32 %62, 1
  store i32 %63, ptr %2, align 4, !tbaa !4
  br label %18, !llvm.loop !96

64:                                               ; preds = %18
  %65 = load ptr, ptr %1, align 8, !tbaa !92
  call void @sk_OSSL_STORE_LOADER_pop_free(ptr noundef %65, ptr noundef @OSSL_STORE_LOADER_free)
  store i32 0, ptr %3, align 4
  br label %66

66:                                               ; preds = %64, %9
  call void @llvm.lifetime.end.p0(i64 4, ptr %2) #7
  call void @llvm.lifetime.end.p0(i64 8, ptr %1) #7
  %67 = load i32, ptr %3, align 4
  switch i32 %67, label %69 [
    i32 0, label %68
    i32 1, label %68
  ]

68:                                               ; preds = %66, %66
  ret void

69:                                               ; preds = %66, %58
  unreachable
}