; Function Attrs: nounwind uwtable
define internal fastcc void @list_store_loaders() unnamed_addr #0 {
  %1 = tail call ptr @OPENSSL_sk_new(ptr noundef nonnull @store_cmp) #6
  %2 = icmp eq ptr %1, null
  br i1 %2, label %3, label %6

3:                                                ; preds = %0
  %4 = load ptr, ptr @bio_err, align 8, !tbaa !4
  %5 = tail call i32 (ptr, ptr, ...) @BIO_printf(ptr noundef %4, ptr noundef nonnull @.str.99) #6
  br label %33

6:                                                ; preds = %0
  %7 = load ptr, ptr @bio_out, align 8, !tbaa !4
  %8 = tail call i32 (ptr, ptr, ...) @BIO_printf(ptr noundef %7, ptr noundef nonnull @.str.122) #6
  %9 = tail call ptr @app_get0_libctx() #6
  tail call void @OSSL_STORE_LOADER_do_all_provided(ptr noundef %9, ptr noundef nonnull @collect_store_loaders, ptr noundef nonnull %1) #6
  tail call void @OPENSSL_sk_sort(ptr noundef nonnull %1) #6
  %10 = tail call i32 @OPENSSL_sk_num(ptr noundef nonnull %1) #6
  %11 = icmp sgt i32 %10, 0
  br i1 %11, label %.lr.ph, label %._crit_edge

.lr.ph:                                           ; preds = %6, %29
  %.021 = phi i32 [ %30, %29 ], [ 0, %6 ]
  %12 = tail call ptr @OPENSSL_sk_value(ptr noundef nonnull %1, i32 noundef %.021) #6
  %13 = load ptr, ptr @select_name, align 8, !tbaa !23
  %.not = icmp eq ptr %13, null
  br i1 %.not, label %16, label %14

14:                                               ; preds = %.lr.ph
  %15 = tail call i32 @OSSL_STORE_LOADER_is_a(ptr noundef %12, ptr noundef nonnull %13) #6
  %.not18 = icmp eq i32 %15, 0
  br i1 %.not18, label %29, label %16

16:                                               ; preds = %14, %.lr.ph
  %17 = tail call ptr @OPENSSL_sk_new(ptr noundef nonnull @name_cmp) #6
  %.not19 = icmp eq ptr %17, null
  br i1 %.not19, label %28, label %18

18:                                               ; preds = %16
  %19 = tail call i32 @OSSL_STORE_LOADER_names_do_all(ptr noundef %12, ptr noundef nonnull @collect_names, ptr noundef nonnull %17) #6
  %.not20 = icmp eq i32 %19, 0
  br i1 %.not20, label %28, label %20

20:                                               ; preds = %18
  %21 = load ptr, ptr @bio_out, align 8, !tbaa !4
  %22 = tail call i32 (ptr, ptr, ...) @BIO_printf(ptr noundef %21, ptr noundef nonnull @.str.102) #6
  %23 = load ptr, ptr @bio_out, align 8, !tbaa !4
  tail call void @print_names(ptr noundef %23, ptr noundef nonnull %17) #6
  %24 = load ptr, ptr @bio_out, align 8, !tbaa !4
  %25 = tail call ptr @OSSL_STORE_LOADER_get0_provider(ptr noundef %12) #6
  %26 = tail call ptr @OSSL_PROVIDER_get0_name(ptr noundef %25) #6
  %27 = tail call i32 (ptr, ptr, ...) @BIO_printf(ptr noundef %24, ptr noundef nonnull @.str.103, ptr noundef %26) #6
  br label %28

28:                                               ; preds = %20, %18, %16
  tail call void @OPENSSL_sk_free(ptr noundef %17) #6
  br label %29

29:                                               ; preds = %14, %28
  %30 = add nuw nsw i32 %.021, 1
  %31 = tail call i32 @OPENSSL_sk_num(ptr noundef nonnull %1) #6
  %32 = icmp slt i32 %30, %31
  br i1 %32, label %.lr.ph, label %._crit_edge, !llvm.loop !53

._crit_edge:                                      ; preds = %29, %6
  tail call void @OPENSSL_sk_pop_free(ptr noundef nonnull %1, ptr noundef nonnull @OSSL_STORE_LOADER_free) #6
  br label %33

33:                                               ; preds = %._crit_edge, %3
  ret void
}